target datalayout = "e-m:e-p270:32:32-p271:32:32-p272:64:64-i64:64-i128:128-f80:128-n8:16:32:64-S128"
target triple = "x86_64-pc-linux-gnu"

%struct.prov_sm4_xts_ctx_st = type { %struct.prov_cipher_ctx_st, %union.anon.0, %union.anon.0, i32, %struct.xts128_context, ptr, ptr }
%struct.prov_cipher_ctx_st = type { [16 x i8], [16 x i8], [16 x i8], ptr, %union.anon, i32, i64, i64, i64, i64, i32, i8, i32, ptr, i32, i64, i32, i64, i32, ptr, ptr, ptr }
%union.anon = type { ptr }
%union.anon.0 = type { double, [120 x i8] }
%struct.xts128_context = type { ptr, ptr, ptr, ptr }

@.str = private unnamed_addr constant [62 x i8] c"../openssl/providers/implementations/ciphers/cipher_sm4_xts.c\00", align 1

; Function Attrs: nounwind uwtable
define internal ptr @sm4_xts_newctx(ptr noundef %0, i32 noundef %1, i64 noundef %2, i64 noundef %3, i64 noundef %4, i64 noundef %5) #0 {
  %7 = alloca ptr, align 8
  %8 = alloca i32, align 4
  %9 = alloca i64, align 8
  %10 = alloca i64, align 8
  %11 = alloca i64, align 8
  %12 = alloca i64, align 8
  %13 = alloca ptr, align 8
  store ptr %0, ptr %7, align 8, !tbaa !3
  store i32 %1, ptr %8, align 4, !tbaa !33
  store i64 %2, ptr %9, align 8, !tbaa !9
  store i64 %3, ptr %10, align 8, !tbaa !9
  store i64 %4, ptr %11, align 8, !tbaa !9
  store i64 %5, ptr %12, align 8, !tbaa !9
  call void @llvm.lifetime.start.p0(i64 8, ptr %13) #4
  %14 = call noalias ptr @CRYPTO_zalloc(i64 noundef 504, ptr noundef @.str, i32 noundef 80)
  store ptr %14, ptr %13, align 8, !tbaa !15
  %15 = load ptr, ptr %13, align 8, !tbaa !15
  %16 = icmp ne ptr %15, null
  br i1 %16, label %17, label %27

17:                                               ; preds = %6
  %18 = load ptr, ptr %13, align 8, !tbaa !15
  %19 = getelementptr inbounds nuw %struct.prov_sm4_xts_ctx_st, ptr %18, i32 0, i32 0
  %20 = load i64, ptr %10, align 8, !tbaa !9
  %21 = load i64, ptr %11, align 8, !tbaa !9
  %22 = load i64, ptr %12, align 8, !tbaa !9
  %23 = load i32, ptr %8, align 4, !tbaa !33
  %24 = load i64, ptr %9, align 8, !tbaa !9
  %25 = load i64, ptr %10, align 8, !tbaa !9
  %26 = call ptr @ossl_prov_cipher_hw_sm4_xts(i64 noundef %25)
  call void @ossl_cipher_generic_initkey(ptr noundef %19, i64 noundef %20, i64 noundef %21, i64 noundef %22, i32 noundef %23, i64 noundef %24, ptr noundef %26, ptr noundef null)
  br label %27

27:                                               ; preds = %17, %6
  %28 = load ptr, ptr %13, align 8, !tbaa !15
  call void @llvm.lifetime.end.p0(i64 8, ptr %13) #4
  ret ptr %28
}

; Function Attrs: nounwind uwtable
define internal ptr @sm4_128_xts_newctx(ptr noundef %0) #0 {
  %2 = alloca ptr, align 8
  store ptr %0, ptr %2, align 8, !tbaa !3
  %3 = load ptr, ptr %2, align 8, !tbaa !3
  %4 = call ptr @sm4_xts_newctx(ptr noundef %3, i32 noundef 65537, i64 noundef 2, i64 noundef 256, i64 noundef 8, i64 noundef 128)
  ret ptr %4
}