; Function Attrs: nounwind uwtable
define internal ptr @sm4_128_xts_newctx(ptr readnone captures(none) %0) #0 {
  %2 = tail call noalias ptr @CRYPTO_zalloc(i64 noundef 504, ptr noundef nonnull @.str, i32 noundef 80) #4
  %.not.i = icmp eq ptr %2, null
  br i1 %.not.i, label %sm4_xts_newctx.exit, label %3

3:                                                ; preds = %1
  %4 = tail call ptr @ossl_prov_cipher_hw_sm4_xts(i64 noundef 256) #4
  tail call void @ossl_cipher_generic_initkey(ptr noundef nonnull %2, i64 noundef 256, i64 noundef 8, i64 noundef 128, i32 noundef 65537, i64 noundef 2, ptr noundef %4, ptr noundef null) #4
  br label %sm4_xts_newctx.exit

sm4_xts_newctx.exit:                              ; preds = %1, %3
  ret ptr %2
}